; Function Attrs: nounwind uwtable
define noundef ptr @_safe_realloc(ptr nocapture noundef %0, i64 noundef %1, i64 noundef %2, i64 noundef %3) local_unnamed_addr #0 {
  %5 = tail call { i64, i64 } asm "mulq $3\0A\09add $4,$0\0A\09adc $$0,$1", "=&{ax},=&{dx},%0,rm,rm,~{dirflag},~{fpsr},~{flags}"(i64 %1, i64 %2, i64 %3) #41, !srcloc !5
  %.025 = extractvalue { i64, i64 } %5, 1
  %.not.not = icmp eq i64 %.025, 0
  br i1 %.not.not, label %7, label %6

6:                                                ; preds = %4
  tail call void (i32, ptr, ...) @zend_error_noreturn(i32 noundef 1, ptr noundef nonnull @.str.11, i64 noundef %1, i64 noundef %2, i64 noundef %3) #38
  unreachable

7:                                                ; preds = %4
  %.024 = extractvalue { i64, i64 } %5, 0
  %8 = tail call ptr @realloc(ptr noundef %0, i64 noundef %.024) #43
  %9 = icmp ne ptr %8, null
  %.not.i = icmp eq i64 %.024, 0
  %10 = or i1 %.not.i, %9
  br i1 %10, label %__zend_realloc.exit, label %11

11:                                               ; preds = %7
  tail call fastcc void @zend_out_of_memory() #34
  unreachable

__zend_realloc.exit:                              ; preds = %7
  ret ptr %8
}